(dp1
S'failed'
p2
(lp3
S'6'
aS'7'
asS'source_names'
p4
(lp5
S'.'
asS'ids'
p6
(dp7
I1
(S'/home/user/Documents/FOSS4GNA/examples/ePop/ePop/test/test_epop_dockwidget.py'
S'ePop.test.test_epop_dockwidget'
S'ePopDockWidgetTest.test_dockwidget_ok'
tp8
sI2
(S'/home/user/Documents/FOSS4GNA/examples/ePop/ePop/test/test_init.py'
S'ePop.test.test_init'
S'TestInit.test_read_init'
tp9
sI3
(S'/home/user/Documents/FOSS4GNA/examples/ePop/ePop/test/test_qgis_environment.py'
S'ePop.test.test_qgis_environment'
p10
S'QGISTest.test_projection'
tp11
sI4
(S'/home/user/Documents/FOSS4GNA/examples/ePop/ePop/test/test_qgis_environment.py'
g10
S'QGISTest.test_qgis_environment'
tp12
sI5
(S'/home/user/Documents/FOSS4GNA/examples/ePop/ePop/test/test_resources.py'
S'ePop.test.test_resources'
S'ePopDialogTest.test_icon_png'
tp13
sI6
(S'/home/user/Documents/FOSS4GNA/examples/ePop/ePop/test/test_translations.py'
S'ePop.test.test_translations'
S'SafeTranslationsTest.test_qgis_translations'
tp14
sI7
(S'/home/user/Documents/FOSS4GNA/examples/ePop/ePop/test/test_libepop.py'
p15
S'ePop.test.test_libepop'
p16
Ntp17
ss.